target datalayout = "e-m:e-p270:32:32-p271:32:32-p272:64:64-i64:64-i128:128-f80:128-n8:16:32:64-S128"
target triple = "x86_64-pc-linux-gnu"

%struct.tuplehash_hash = type { i64, i32, i32, i32, ptr, ptr, ptr }
%struct.TupleHashEntryData = type { ptr, ptr, i32, i32 }
%struct.tuplehash_iterator = type { i32, i32, i8 }

; Function Attrs: nounwind uwtable
define dso_local ptr @tuplehash_iterate(ptr noundef %0, ptr noundef %1) #0 {
  %3 = alloca ptr, align 8
  %4 = alloca ptr, align 8
  %5 = alloca ptr, align 8
  %6 = alloca ptr, align 8
  %7 = alloca i32, align 4
  store ptr %0, ptr %4, align 8
  store ptr %1, ptr %5, align 8
  br label %8

8:                                                ; preds = %61, %2
  %9 = load ptr, ptr %5, align 8
  %10 = getelementptr inbounds nuw %struct.tuplehash_iterator, ptr %9, i32 0, i32 2
  %11 = load i8, ptr %10, align 4, !range !9, !noundef !10
  %12 = trunc i8 %11 to i1
  %13 = xor i1 %12, true
  br i1 %13, label %14, label %62

14:                                               ; preds = %8
  call void @llvm.lifetime.start.p0(i64 8, ptr %6) #9
  %15 = load ptr, ptr %4, align 8
  %16 = getelementptr inbounds nuw %struct.tuplehash_hash, ptr %15, i32 0, i32 4
  %17 = load ptr, ptr %16, align 8
  %18 = load ptr, ptr %5, align 8
  %19 = getelementptr inbounds nuw %struct.tuplehash_iterator, ptr %18, i32 0, i32 0
  %20 = load i32, ptr %19, align 4
  %21 = zext i32 %20 to i64
  %22 = getelementptr inbounds nuw %struct.TupleHashEntryData, ptr %17, i64 %21
  store ptr %22, ptr %6, align 8
  %23 = load ptr, ptr %5, align 8
  %24 = getelementptr inbounds nuw %struct.tuplehash_iterator, ptr %23, i32 0, i32 0
  %25 = load i32, ptr %24, align 4
  %26 = sub i32 %25, 1
  %27 = load ptr, ptr %4, align 8
  %28 = getelementptr inbounds nuw %struct.tuplehash_hash, ptr %27, i32 0, i32 2
  %29 = load i32, ptr %28, align 4
  %30 = and i32 %26, %29
  %31 = load ptr, ptr %5, align 8
  %32 = getelementptr inbounds nuw %struct.tuplehash_iterator, ptr %31, i32 0, i32 0
  store i32 %30, ptr %32, align 4
  %33 = load ptr, ptr %5, align 8
  %34 = getelementptr inbounds nuw %struct.tuplehash_iterator, ptr %33, i32 0, i32 0
  %35 = load i32, ptr %34, align 4
  %36 = load ptr, ptr %4, align 8
  %37 = getelementptr inbounds nuw %struct.tuplehash_hash, ptr %36, i32 0, i32 2
  %38 = load i32, ptr %37, align 4
  %39 = and i32 %35, %38
  %40 = load ptr, ptr %5, align 8
  %41 = getelementptr inbounds nuw %struct.tuplehash_iterator, ptr %40, i32 0, i32 1
  %42 = load i32, ptr %41, align 4
  %43 = load ptr, ptr %4, align 8
  %44 = getelementptr inbounds nuw %struct.tuplehash_hash, ptr %43, i32 0, i32 2
  %45 = load i32, ptr %44, align 4
  %46 = and i32 %42, %45
  %47 = icmp eq i32 %39, %46
  br i1 %47, label %48, label %51

48:                                               ; preds = %14
  %49 = load ptr, ptr %5, align 8
  %50 = getelementptr inbounds nuw %struct.tuplehash_iterator, ptr %49, i32 0, i32 2
  store i8 1, ptr %50, align 4
  br label %51

51:                                               ; preds = %48, %14
  %52 = load ptr, ptr %6, align 8
  %53 = getelementptr inbounds nuw %struct.TupleHashEntryData, ptr %52, i32 0, i32 2
  %54 = load i32, ptr %53, align 8
  %55 = icmp eq i32 %54, 1
  br i1 %55, label %56, label %58

56:                                               ; preds = %51
  %57 = load ptr, ptr %6, align 8
  store ptr %57, ptr %3, align 8
  store i32 1, ptr %7, align 4
  br label %59

58:                                               ; preds = %51
  store i32 0, ptr %7, align 4
  br label %59

59:                                               ; preds = %58, %56
  call void @llvm.lifetime.end.p0(i64 8, ptr %6) #9
  %60 = load i32, ptr %7, align 4
  switch i32 %60, label %65 [
    i32 0, label %61
    i32 1, label %63
  ]

61:                                               ; preds = %59
  br label %8, !llvm.loop !11

62:                                               ; preds = %8
  store ptr null, ptr %3, align 8
  br label %63

63:                                               ; preds = %62, %59
  %64 = load ptr, ptr %3, align 8
  ret ptr %64

65:                                               ; preds = %59
  unreachable
}