; Function Attrs: nofree norecurse nosync nounwind memory(read, argmem: readwrite, inaccessiblemem: none) uwtable
define dso_local ptr @tuplehash_iterate(ptr noundef readonly captures(none) %0, ptr noundef captures(none) %1) local_unnamed_addr #8 {
  %3 = getelementptr inbounds nuw i8, ptr %1, i64 8
  %.promoted = load i8, ptr %3, align 4
  %4 = getelementptr inbounds nuw i8, ptr %0, i64 24
  %5 = getelementptr inbounds nuw i8, ptr %0, i64 12
  %6 = getelementptr inbounds nuw i8, ptr %1, i64 4
  br label %7

7:                                                ; preds = %24, %2
  %8 = phi i8 [ %25, %24 ], [ %.promoted, %2 ]
  %9 = trunc nuw i8 %8 to i1
  br i1 %9, label %28, label %10

10:                                               ; preds = %7
  %11 = load ptr, ptr %4, align 8
  %12 = load i32, ptr %1, align 4
  %13 = zext i32 %12 to i64
  %14 = getelementptr inbounds nuw %struct.TupleHashEntryData, ptr %11, i64 %13
  %15 = add i32 %12, -1
  %16 = load i32, ptr %5, align 4
  %17 = and i32 %15, %16
  store i32 %17, ptr %1, align 4
  %18 = load i32, ptr %5, align 4
  %19 = load i32, ptr %6, align 4
  %20 = xor i32 %19, %17
  %21 = and i32 %20, %18
  %22 = icmp eq i32 %21, 0
  br i1 %22, label %23, label %24

23:                                               ; preds = %10
  store i8 1, ptr %3, align 4
  br label %24

24:                                               ; preds = %23, %10
  %25 = phi i8 [ 1, %23 ], [ 0, %10 ]
  %26 = getelementptr inbounds nuw i8, ptr %14, i64 16
  %27 = load i32, ptr %26, align 8
  %.not = icmp eq i32 %27, 1
  br i1 %.not, label %28, label %7

28:                                               ; preds = %24, %7
  %.2 = phi ptr [ %14, %24 ], [ null, %7 ]
  ret ptr %.2
}